target datalayout = "e-m:e-p270:32:32-p271:32:32-p272:64:64-i64:64-i128:128-f80:128-n8:16:32:64-S128"
target triple = "x86_64-unknown-linux-gnu"

%"class.icu_75::UnicodeString" = type { %"class.icu_75::Replaceable", %"union.icu_75::UnicodeString::StackBufferOrFields" }
%"class.icu_75::Replaceable" = type { %"class.icu_75::UObject" }
%"class.icu_75::UObject" = type { ptr }
%"union.icu_75::UnicodeString::StackBufferOrFields" = type { %struct.anon.0, [32 x i8] }
%struct.anon.0 = type { i16, i32, i32, ptr }
%"class.icu_75::ConstChar16Ptr" = type { ptr }

; Function Attrs: mustprogress nounwind uwtable
define linkonce_odr void @_ZN6icu_7514ConstChar16PtrD2Ev(ptr noundef nonnull align 8 dereferenceable(8) %this) unnamed_addr #1 comdat align 2 {
entry:
  %this.addr = alloca ptr, align 8
  store ptr %this, ptr %this.addr, align 8
  %this1 = load ptr, ptr %this.addr, align 8
  %p_ = getelementptr inbounds %"class.icu_75::ConstChar16Ptr", ptr %this1, i32 0, i32 0
  %0 = load ptr, ptr %p_, align 8
  call void asm sideeffect "", "rm,~{memory},~{dirflag},~{fpsr},~{flags}"(ptr %0) #6, !srcloc !4
  ret void
}

; Function Attrs: mustprogress nounwind uwtable
define linkonce_odr void @_ZN6icu_7514ConstChar16PtrC2EPKDs(ptr noundef nonnull align 8 dereferenceable(8) %this, ptr noundef %p) unnamed_addr #1 comdat align 2 {
entry:
  %this.addr = alloca ptr, align 8
  %p.addr = alloca ptr, align 8
  store ptr %this, ptr %this.addr, align 8
  store ptr %p, ptr %p.addr, align 8
  %this1 = load ptr, ptr %this.addr, align 8
  %p_ = getelementptr inbounds %"class.icu_75::ConstChar16Ptr", ptr %this1, i32 0, i32 0
  %0 = load ptr, ptr %p.addr, align 8
  store ptr %0, ptr %p_, align 8
  ret void
}

; Function Attrs: mustprogress nounwind uwtable
define internal noundef signext i8 @_ZL9U_FAILURE10UErrorCode(i32 noundef %code) #1 {
entry:
  %code.addr = alloca i32, align 4
  store i32 %code, ptr %code.addr, align 4
  %0 = load i32, ptr %code.addr, align 4
  %cmp = icmp sgt i32 %0, 0
  %conv = zext i1 %cmp to i8
  ret i8 %conv
}

; Function Attrs: mustprogress uwtable
define i32 @uspoof_areConfusable_75(ptr noundef %sc, ptr noundef %id1, i32 noundef %length1, ptr noundef %id2, i32 noundef %length2, ptr noundef %status) #0 personality ptr @__gxx_personality_v0 {
entry:
  %retval = alloca i32, align 4
  %sc.addr = alloca ptr, align 8
  %id1.addr = alloca ptr, align 8
  %length1.addr = alloca i32, align 4
  %id2.addr = alloca ptr, align 8
  %length2.addr = alloca i32, align 4
  %status.addr = alloca ptr, align 8
  %id1Str = alloca %"class.icu_75::UnicodeString", align 8
  %agg.tmp = alloca %"class.icu_75::ConstChar16Ptr", align 8
  %exn.slot = alloca ptr, align 8
  %ehselector.slot = alloca i32, align 4
  %id2Str = alloca %"class.icu_75::UnicodeString", align 8
  %agg.tmp8 = alloca %"class.icu_75::ConstChar16Ptr", align 8
  store ptr %sc, ptr %sc.addr, align 8
  store ptr %id1, ptr %id1.addr, align 8
  store i32 %length1, ptr %length1.addr, align 4
  store ptr %id2, ptr %id2.addr, align 8
  store i32 %length2, ptr %length2.addr, align 4
  store ptr %status, ptr %status.addr, align 8
  %0 = load ptr, ptr %sc.addr, align 8
  %1 = load ptr, ptr %status.addr, align 8
  %call = call noundef ptr @_ZN6icu_759SpoofImpl12validateThisEPK13USpoofCheckerR10UErrorCode(ptr noundef %0, ptr noundef nonnull align 4 dereferenceable(4) %1)
  %2 = load ptr, ptr %status.addr, align 8
  %3 = load i32, ptr %2, align 4
  %call1 = call noundef signext i8 @_ZL9U_FAILURE10UErrorCode(i32 noundef %3)
  %tobool = icmp ne i8 %call1, 0
  br i1 %tobool, label %if.then, label %if.end

if.then:                                          ; preds = %entry
  store i32 0, ptr %retval, align 4
  br label %return

if.end:                                           ; preds = %entry
  %4 = load i32, ptr %length1.addr, align 4
  %cmp = icmp slt i32 %4, -1
  br i1 %cmp, label %if.then3, label %lor.lhs.false

lor.lhs.false:                                    ; preds = %if.end
  %5 = load i32, ptr %length2.addr, align 4
  %cmp2 = icmp slt i32 %5, -1
  br i1 %cmp2, label %if.then3, label %if.end4

if.then3:                                         ; preds = %lor.lhs.false, %if.end
  %6 = load ptr, ptr %status.addr, align 8
  store i32 1, ptr %6, align 4
  store i32 0, ptr %retval, align 4
  br label %return

if.end4:                                          ; preds = %lor.lhs.false
  %7 = load i32, ptr %length1.addr, align 4
  %cmp5 = icmp eq i32 %7, -1
  %conv = zext i1 %cmp5 to i8
  %8 = load ptr, ptr %id1.addr, align 8
  call void @_ZN6icu_7514ConstChar16PtrC2EPKDs(ptr noundef nonnull align 8 dereferenceable(8) %agg.tmp, ptr noundef %8)
  %9 = load i32, ptr %length1.addr, align 4
  invoke void @_ZN6icu_7513UnicodeStringC1EaNS_14ConstChar16PtrEi(ptr noundef nonnull align 8 dereferenceable(64) %id1Str, i8 noundef signext %conv, ptr noundef %agg.tmp, i32 noundef %9)
          to label %invoke.cont unwind label %lpad

invoke.cont:                                      ; preds = %if.end4
  call void @_ZN6icu_7514ConstChar16PtrD2Ev(ptr noundef nonnull align 8 dereferenceable(8) %agg.tmp) #6
  %10 = load i32, ptr %length2.addr, align 4
  %cmp6 = icmp eq i32 %10, -1
  %conv7 = zext i1 %cmp6 to i8
  %11 = load ptr, ptr %id2.addr, align 8
  invoke void @_ZN6icu_7514ConstChar16PtrC2EPKDs(ptr noundef nonnull align 8 dereferenceable(8) %agg.tmp8, ptr noundef %11)
          to label %invoke.cont10 unwind label %lpad9

invoke.cont10:                                    ; preds = %invoke.cont
  %12 = load i32, ptr %length2.addr, align 4
  invoke void @_ZN6icu_7513UnicodeStringC1EaNS_14ConstChar16PtrEi(ptr noundef nonnull align 8 dereferenceable(64) %id2Str, i8 noundef signext %conv7, ptr noundef %agg.tmp8, i32 noundef %12)
          to label %invoke.cont12 unwind label %lpad11

invoke.cont12:                                    ; preds = %invoke.cont10
  call void @_ZN6icu_7514ConstChar16PtrD2Ev(ptr noundef nonnull align 8 dereferenceable(8) %agg.tmp8) #6
  %13 = load ptr, ptr %sc.addr, align 8
  %14 = load ptr, ptr %status.addr, align 8
  %call15 = invoke i32 @uspoof_areConfusableUnicodeString_75(ptr noundef %13, ptr noundef nonnull align 8 dereferenceable(64) %id1Str, ptr noundef nonnull align 8 dereferenceable(64) %id2Str, ptr noundef %14)
          to label %invoke.cont14 unwind label %lpad13

invoke.cont14:                                    ; preds = %invoke.cont12
  store i32 %call15, ptr %retval, align 4
  call void @_ZN6icu_7513UnicodeStringD1Ev(ptr noundef nonnull align 8 dereferenceable(64) %id2Str) #6
  call void @_ZN6icu_7513UnicodeStringD1Ev(ptr noundef nonnull align 8 dereferenceable(64) %id1Str) #6
  br label %return

lpad:                                             ; preds = %if.end4
  %15 = landingpad { ptr, i32 }
          cleanup
  %16 = extractvalue { ptr, i32 } %15, 0
  store ptr %16, ptr %exn.slot, align 8
  %17 = extractvalue { ptr, i32 } %15, 1
  store i32 %17, ptr %ehselector.slot, align 4
  call void @_ZN6icu_7514ConstChar16PtrD2Ev(ptr noundef nonnull align 8 dereferenceable(8) %agg.tmp) #6
  br label %eh.resume

lpad9:                                            ; preds = %invoke.cont
  %18 = landingpad { ptr, i32 }
          cleanup
  %19 = extractvalue { ptr, i32 } %18, 0
  store ptr %19, ptr %exn.slot, align 8
  %20 = extractvalue { ptr, i32 } %18, 1
  store i32 %20, ptr %ehselector.slot, align 4
  br label %ehcleanup

lpad11:                                           ; preds = %invoke.cont10
  %21 = landingpad { ptr, i32 }
          cleanup
  %22 = extractvalue { ptr, i32 } %21, 0
  store ptr %22, ptr %exn.slot, align 8
  %23 = extractvalue { ptr, i32 } %21, 1
  store i32 %23, ptr %ehselector.slot, align 4
  call void @_ZN6icu_7514ConstChar16PtrD2Ev(ptr noundef nonnull align 8 dereferenceable(8) %agg.tmp8) #6
  br label %ehcleanup

lpad13:                                           ; preds = %invoke.cont12
  %24 = landingpad { ptr, i32 }
          cleanup
  %25 = extractvalue { ptr, i32 } %24, 0
  store ptr %25, ptr %exn.slot, align 8
  %26 = extractvalue { ptr, i32 } %24, 1
  store i32 %26, ptr %ehselector.slot, align 4
  call void @_ZN6icu_7513UnicodeStringD1Ev(ptr noundef nonnull align 8 dereferenceable(64) %id2Str) #6
  br label %ehcleanup

ehcleanup:                                        ; preds = %lpad13, %lpad11, %lpad9
  call void @_ZN6icu_7513UnicodeStringD1Ev(ptr noundef nonnull align 8 dereferenceable(64) %id1Str) #6
  br label %eh.resume

return:                                           ; preds = %invoke.cont14, %if.then3, %if.then
  %27 = load i32, ptr %retval, align 4
  ret i32 %27

eh.resume:                                        ; preds = %ehcleanup, %lpad
  %exn = load ptr, ptr %exn.slot, align 8
  %sel = load i32, ptr %ehselector.slot, align 4
  %lpad.val = insertvalue { ptr, i32 } poison, ptr %exn, 0
  %lpad.val16 = insertvalue { ptr, i32 } %lpad.val, i32 %sel, 1
  resume { ptr, i32 } %lpad.val16
}