; Function Attrs: mustprogress uwtable
define i32 @uspoof_areConfusable_75(ptr noundef %sc, ptr noundef %id1, i32 noundef %length1, ptr noundef %id2, i32 noundef %length2, ptr noundef nonnull %status) local_unnamed_addr #0 personality ptr @__gxx_personality_v0 {
entry:
  %id1Str = alloca %"class.icu_75::UnicodeString", align 8
  %agg.tmp = alloca %"class.icu_75::ConstChar16Ptr", align 8
  %id2Str = alloca %"class.icu_75::UnicodeString", align 8
  %agg.tmp8 = alloca %"class.icu_75::ConstChar16Ptr", align 8
  %call = tail call noundef ptr @_ZN6icu_759SpoofImpl12validateThisEPK13USpoofCheckerR10UErrorCode(ptr noundef %sc, ptr noundef nonnull align 4 dereferenceable(4) %status)
  %0 = load i32, ptr %status, align 4
  %cmp.i = icmp slt i32 %0, 1
  br i1 %cmp.i, label %if.end, label %return

if.end:                                           ; preds = %entry
  %cmp = icmp slt i32 %length1, -1
  %cmp2 = icmp slt i32 %length2, -1
  %or.cond = or i1 %cmp, %cmp2
  br i1 %or.cond, label %if.then3, label %if.end4

if.then3:                                         ; preds = %if.end
  store i32 1, ptr %status, align 4
  br label %return

if.end4:                                          ; preds = %if.end
  %cmp5 = icmp eq i32 %length1, -1
  %conv = zext i1 %cmp5 to i8
  store ptr %id1, ptr %agg.tmp, align 8
  invoke void @_ZN6icu_7513UnicodeStringC1EaNS_14ConstChar16PtrEi(ptr noundef nonnull align 8 dereferenceable(64) %id1Str, i8 noundef signext %conv, ptr noundef nonnull %agg.tmp, i32 noundef %length1)
          to label %invoke.cont unwind label %lpad

invoke.cont:                                      ; preds = %if.end4
  %1 = load ptr, ptr %agg.tmp, align 8
  call void asm sideeffect "", "rm,~{memory},~{dirflag},~{fpsr},~{flags}"(ptr %1) #6, !srcloc !4
  %cmp6 = icmp eq i32 %length2, -1
  %conv7 = zext i1 %cmp6 to i8
  store ptr %id2, ptr %agg.tmp8, align 8
  invoke void @_ZN6icu_7513UnicodeStringC1EaNS_14ConstChar16PtrEi(ptr noundef nonnull align 8 dereferenceable(64) %id2Str, i8 noundef signext %conv7, ptr noundef nonnull %agg.tmp8, i32 noundef %length2)
          to label %invoke.cont12 unwind label %lpad11

invoke.cont12:                                    ; preds = %invoke.cont
  %2 = load ptr, ptr %agg.tmp8, align 8
  call void asm sideeffect "", "rm,~{memory},~{dirflag},~{fpsr},~{flags}"(ptr %2) #6, !srcloc !4
  %call15 = invoke i32 @uspoof_areConfusableUnicodeString_75(ptr noundef %sc, ptr noundef nonnull align 8 dereferenceable(64) %id1Str, ptr noundef nonnull align 8 dereferenceable(64) %id2Str, ptr noundef nonnull %status)
          to label %invoke.cont14 unwind label %lpad13

invoke.cont14:                                    ; preds = %invoke.cont12
  call void @_ZN6icu_7513UnicodeStringD1Ev(ptr noundef nonnull align 8 dereferenceable(64) %id2Str) #6
  call void @_ZN6icu_7513UnicodeStringD1Ev(ptr noundef nonnull align 8 dereferenceable(64) %id1Str) #6
  br label %return

lpad:                                             ; preds = %if.end4
  %3 = landingpad { ptr, i32 }
          cleanup
  %4 = load ptr, ptr %agg.tmp, align 8
  call void asm sideeffect "", "rm,~{memory},~{dirflag},~{fpsr},~{flags}"(ptr %4) #6, !srcloc !4
  br label %eh.resume

lpad11:                                           ; preds = %invoke.cont
  %5 = landingpad { ptr, i32 }
          cleanup
  %6 = load ptr, ptr %agg.tmp8, align 8
  call void asm sideeffect "", "rm,~{memory},~{dirflag},~{fpsr},~{flags}"(ptr %6) #6, !srcloc !4
  br label %ehcleanup

lpad13:                                           ; preds = %invoke.cont12
  %7 = landingpad { ptr, i32 }
          cleanup
  call void @_ZN6icu_7513UnicodeStringD1Ev(ptr noundef nonnull align 8 dereferenceable(64) %id2Str) #6
  br label %ehcleanup

ehcleanup:                                        ; preds = %lpad13, %lpad11
  %.pn = phi { ptr, i32 } [ %7, %lpad13 ], [ %5, %lpad11 ]
  call void @_ZN6icu_7513UnicodeStringD1Ev(ptr noundef nonnull align 8 dereferenceable(64) %id1Str) #6
  br label %eh.resume

return:                                           ; preds = %entry, %invoke.cont14, %if.then3
  %retval.0 = phi i32 [ 0, %if.then3 ], [ %call15, %invoke.cont14 ], [ 0, %entry ]
  ret i32 %retval.0

eh.resume:                                        ; preds = %ehcleanup, %lpad
  %.pn.pn = phi { ptr, i32 } [ %.pn, %ehcleanup ], [ %3, %lpad ]
  resume { ptr, i32 } %.pn.pn
}